; Function Attrs: mustprogress uwtable
define hidden noundef zeroext i1 @_ZN4cvc58internal6theory5arith14isMaybeIntegerERKNS0_8TypeNodeE(ptr noundef nonnull align 8 dereferenceable(8) %0) local_unnamed_addr #3 {
  %2 = tail call noundef zeroext i1 @_ZNK4cvc58internal8TypeNode9isIntegerEv(ptr noundef nonnull align 8 dereferenceable(8) %0)
  br i1 %2, label %5, label %3

3:                                                ; preds = %1
  %4 = tail call noundef zeroext i1 @_ZNK4cvc58internal8TypeNode15isFullyAbstractEv(ptr noundef nonnull align 8 dereferenceable(8) %0)
  br label %5

5:                                                ; preds = %3, %1
  %6 = phi i1 [ true, %1 ], [ %4, %3 ]
  ret i1 %6
}